; Function Attrs: mustprogress nounwind uwtable
define internal fastcc void @_ZN6hermes6ESTree24RecursiveVisitorDispatchINS_12_GLOBAL__N_119DependencyExtractorELb1EE13visitChildrenERS3_PNS0_24ObjectTypeAnnotationNodeE(ptr noundef nonnull align 8 dereferenceable(145) %v, ptr noundef readonly %node) unnamed_addr #0 align 2 {
entry:
  %_properties = getelementptr inbounds i8, ptr %node, i64 48
  %Next.i.i.i.i = getelementptr inbounds i8, ptr %node, i64 56
  %__begin4.i.sroa.0.067 = load ptr, ptr %Next.i.i.i.i, align 8
  %cmp.i.not68 = icmp eq ptr %__begin4.i.sroa.0.067, %_properties
  br i1 %cmp.i.not68, label %_ZN6hermes6ESTree24RecursiveVisitorDispatchINS_12_GLOBAL__N_119DependencyExtractorELb1EE5visitERS3_RN4llvh12simple_ilistINS0_4NodeEJEEEPS8_.exit, label %for.body.i

for.body.i:                                       ; preds = %entry, %for.body.i
  %__begin4.i.sroa.0.069 = phi ptr [ %__begin4.i.sroa.0.0, %for.body.i ], [ %__begin4.i.sroa.0.067, %entry ]
  tail call fastcc void @_ZN6hermes6ESTree24RecursiveVisitorDispatchINS_12_GLOBAL__N_119DependencyExtractorELb1EE5visitERS3_PNS0_4NodeES7_(ptr noundef nonnull align 8 dereferenceable(145) %v, ptr noundef nonnull %__begin4.i.sroa.0.069)
  %Next.i.i.i = getelementptr inbounds i8, ptr %__begin4.i.sroa.0.069, i64 8
  %__begin4.i.sroa.0.0 = load ptr, ptr %Next.i.i.i, align 8
  %cmp.i.not = icmp eq ptr %__begin4.i.sroa.0.0, %_properties
  br i1 %cmp.i.not, label %_ZN6hermes6ESTree24RecursiveVisitorDispatchINS_12_GLOBAL__N_119DependencyExtractorELb1EE5visitERS3_RN4llvh12simple_ilistINS0_4NodeEJEEEPS8_.exit, label %for.body.i

_ZN6hermes6ESTree24RecursiveVisitorDispatchINS_12_GLOBAL__N_119DependencyExtractorELb1EE5visitERS3_RN4llvh12simple_ilistINS0_4NodeEJEEEPS8_.exit: ; preds = %for.body.i, %entry
  %_indexers = getelementptr inbounds i8, ptr %node, i64 64
  %Next.i.i.i.i52 = getelementptr inbounds i8, ptr %node, i64 72
  %__begin4.i17.sroa.0.070 = load ptr, ptr %Next.i.i.i.i52, align 8
  %cmp.i51.not71 = icmp eq ptr %__begin4.i17.sroa.0.070, %_indexers
  br i1 %cmp.i51.not71, label %_ZN6hermes6ESTree24RecursiveVisitorDispatchINS_12_GLOBAL__N_119DependencyExtractorELb1EE5visitERS3_RN4llvh12simple_ilistINS0_4NodeEJEEEPS8_.exit27, label %for.body.i23

for.body.i23:                                     ; preds = %_ZN6hermes6ESTree24RecursiveVisitorDispatchINS_12_GLOBAL__N_119DependencyExtractorELb1EE5visitERS3_RN4llvh12simple_ilistINS0_4NodeEJEEEPS8_.exit, %for.body.i23
  %__begin4.i17.sroa.0.072 = phi ptr [ %__begin4.i17.sroa.0.0, %for.body.i23 ], [ %__begin4.i17.sroa.0.070, %_ZN6hermes6ESTree24RecursiveVisitorDispatchINS_12_GLOBAL__N_119DependencyExtractorELb1EE5visitERS3_RN4llvh12simple_ilistINS0_4NodeEJEEEPS8_.exit ]
  tail call fastcc void @_ZN6hermes6ESTree24RecursiveVisitorDispatchINS_12_GLOBAL__N_119DependencyExtractorELb1EE5visitERS3_PNS0_4NodeES7_(ptr noundef nonnull align 8 dereferenceable(145) %v, ptr noundef nonnull %__begin4.i17.sroa.0.072)
  %Next.i.i.i50 = getelementptr inbounds i8, ptr %__begin4.i17.sroa.0.072, i64 8
  %__begin4.i17.sroa.0.0 = load ptr, ptr %Next.i.i.i50, align 8
  %cmp.i51.not = icmp eq ptr %__begin4.i17.sroa.0.0, %_indexers
  br i1 %cmp.i51.not, label %_ZN6hermes6ESTree24RecursiveVisitorDispatchINS_12_GLOBAL__N_119DependencyExtractorELb1EE5visitERS3_RN4llvh12simple_ilistINS0_4NodeEJEEEPS8_.exit27, label %for.body.i23

_ZN6hermes6ESTree24RecursiveVisitorDispatchINS_12_GLOBAL__N_119DependencyExtractorELb1EE5visitERS3_RN4llvh12simple_ilistINS0_4NodeEJEEEPS8_.exit27: ; preds = %for.body.i23, %_ZN6hermes6ESTree24RecursiveVisitorDispatchINS_12_GLOBAL__N_119DependencyExtractorELb1EE5visitERS3_RN4llvh12simple_ilistINS0_4NodeEJEEEPS8_.exit
  %_callProperties = getelementptr inbounds i8, ptr %node, i64 80
  %Next.i.i.i.i55 = getelementptr inbounds i8, ptr %node, i64 88
  %__begin4.i28.sroa.0.073 = load ptr, ptr %Next.i.i.i.i55, align 8
  %cmp.i54.not74 = icmp eq ptr %__begin4.i28.sroa.0.073, %_callProperties
  br i1 %cmp.i54.not74, label %_ZN6hermes6ESTree24RecursiveVisitorDispatchINS_12_GLOBAL__N_119DependencyExtractorELb1EE5visitERS3_RN4llvh12simple_ilistINS0_4NodeEJEEEPS8_.exit38, label %for.body.i34

for.body.i34:                                     ; preds = %_ZN6hermes6ESTree24RecursiveVisitorDispatchINS_12_GLOBAL__N_119DependencyExtractorELb1EE5visitERS3_RN4llvh12simple_ilistINS0_4NodeEJEEEPS8_.exit27, %for.body.i34
  %__begin4.i28.sroa.0.075 = phi ptr [ %__begin4.i28.sroa.0.0, %for.body.i34 ], [ %__begin4.i28.sroa.0.073, %_ZN6hermes6ESTree24RecursiveVisitorDispatchINS_12_GLOBAL__N_119DependencyExtractorELb1EE5visitERS3_RN4llvh12simple_ilistINS0_4NodeEJEEEPS8_.exit27 ]
  tail call fastcc void @_ZN6hermes6ESTree24RecursiveVisitorDispatchINS_12_GLOBAL__N_119DependencyExtractorELb1EE5visitERS3_PNS0_4NodeES7_(ptr noundef nonnull align 8 dereferenceable(145) %v, ptr noundef nonnull %__begin4.i28.sroa.0.075)
  %Next.i.i.i53 = getelementptr inbounds i8, ptr %__begin4.i28.sroa.0.075, i64 8
  %__begin4.i28.sroa.0.0 = load ptr, ptr %Next.i.i.i53, align 8
  %cmp.i54.not = icmp eq ptr %__begin4.i28.sroa.0.0, %_callProperties
  br i1 %cmp.i54.not, label %_ZN6hermes6ESTree24RecursiveVisitorDispatchINS_12_GLOBAL__N_119DependencyExtractorELb1EE5visitERS3_RN4llvh12simple_ilistINS0_4NodeEJEEEPS8_.exit38, label %for.body.i34

_ZN6hermes6ESTree24RecursiveVisitorDispatchINS_12_GLOBAL__N_119DependencyExtractorELb1EE5visitERS3_RN4llvh12simple_ilistINS0_4NodeEJEEEPS8_.exit38: ; preds = %for.body.i34, %_ZN6hermes6ESTree24RecursiveVisitorDispatchINS_12_GLOBAL__N_119DependencyExtractorELb1EE5visitERS3_RN4llvh12simple_ilistINS0_4NodeEJEEEPS8_.exit27
  %_internalSlots = getelementptr inbounds i8, ptr %node, i64 96
  %Next.i.i.i.i58 = getelementptr inbounds i8, ptr %node, i64 104
  %__begin4.i39.sroa.0.076 = load ptr, ptr %Next.i.i.i.i58, align 8
  %cmp.i57.not77 = icmp eq ptr %__begin4.i39.sroa.0.076, %_internalSlots
  br i1 %cmp.i57.not77, label %_ZN6hermes6ESTree24RecursiveVisitorDispatchINS_12_GLOBAL__N_119DependencyExtractorELb1EE5visitERS3_RN4llvh12simple_ilistINS0_4NodeEJEEEPS8_.exit49, label %for.body.i45

for.body.i45:                                     ; preds = %_ZN6hermes6ESTree24RecursiveVisitorDispatchINS_12_GLOBAL__N_119DependencyExtractorELb1EE5visitERS3_RN4llvh12simple_ilistINS0_4NodeEJEEEPS8_.exit38, %for.body.i45
  %__begin4.i39.sroa.0.078 = phi ptr [ %__begin4.i39.sroa.0.0, %for.body.i45 ], [ %__begin4.i39.sroa.0.076, %_ZN6hermes6ESTree24RecursiveVisitorDispatchINS_12_GLOBAL__N_119DependencyExtractorELb1EE5visitERS3_RN4llvh12simple_ilistINS0_4NodeEJEEEPS8_.exit38 ]
  tail call fastcc void @_ZN6hermes6ESTree24RecursiveVisitorDispatchINS_12_GLOBAL__N_119DependencyExtractorELb1EE5visitERS3_PNS0_4NodeES7_(ptr noundef nonnull align 8 dereferenceable(145) %v, ptr noundef nonnull %__begin4.i39.sroa.0.078)
  %Next.i.i.i56 = getelementptr inbounds i8, ptr %__begin4.i39.sroa.0.078, i64 8
  %__begin4.i39.sroa.0.0 = load ptr, ptr %Next.i.i.i56, align 8
  %cmp.i57.not = icmp eq ptr %__begin4.i39.sroa.0.0, %_internalSlots
  br i1 %cmp.i57.not, label %_ZN6hermes6ESTree24RecursiveVisitorDispatchINS_12_GLOBAL__N_119DependencyExtractorELb1EE5visitERS3_RN4llvh12simple_ilistINS0_4NodeEJEEEPS8_.exit49, label %for.body.i45

_ZN6hermes6ESTree24RecursiveVisitorDispatchINS_12_GLOBAL__N_119DependencyExtractorELb1EE5visitERS3_RN4llvh12simple_ilistINS0_4NodeEJEEEPS8_.exit49: ; preds = %for.body.i45, %_ZN6hermes6ESTree24RecursiveVisitorDispatchINS_12_GLOBAL__N_119DependencyExtractorELb1EE5visitERS3_RN4llvh12simple_ilistINS0_4NodeEJEEEPS8_.exit38
  ret void
}